target datalayout = "e-m:e-p270:32:32-p271:32:32-p272:64:64-i64:64-i128:128-f80:128-n8:16:32:64-S128"
target triple = "x86_64-pc-linux-gnu"

%"class.std::basic_string_view" = type { i64, ptr }

$_ZNSt17basic_string_viewIcSt11char_traitsIcEEC2EPKc = comdat any

$_ZNSt11char_traitsIcE6lengthEPKc = comdat any

$__clang_call_terminate = comdat any

@.str = private unnamed_addr constant [1 x i8] zeroinitializer, align 1
@_ZTVN4absl15CommandLineFlagE = dso_local unnamed_addr constant { [16 x ptr] } { [16 x ptr] [ptr null, ptr @_ZTIN4absl15CommandLineFlagE, ptr @__cxa_pure_virtual, ptr @__cxa_pure_virtual, ptr @__cxa_pure_virtual, ptr @_ZNK4absl15CommandLineFlag9IsRetiredEv, ptr @__cxa_pure_virtual, ptr @__cxa_pure_virtual, ptr @__cxa_pure_virtual, ptr @__cxa_pure_virtual, ptr @__cxa_pure_virtual, ptr @__cxa_pure_virtual, ptr @__cxa_pure_virtual, ptr @__cxa_pure_virtual, ptr @__cxa_pure_virtual, ptr @_ZNK4absl15CommandLineFlag8TypeNameEv] }, align 8
@_ZTIN4absl15CommandLineFlagE = dso_local constant { ptr, ptr } { ptr getelementptr inbounds (ptr, ptr @_ZTVN10__cxxabiv117__class_type_infoE, i64 2), ptr @_ZTSN4absl15CommandLineFlagE }, align 8
@_ZTVN10__cxxabiv117__class_type_infoE = external global [0 x ptr]
@_ZTSN4absl15CommandLineFlagE = dso_local constant [25 x i8] c"N4absl15CommandLineFlagE\00", align 1

; Function Attrs: mustprogress nounwind uwtable
define dso_local { i64, ptr } @_ZNK4absl15CommandLineFlag8TypeNameEv(ptr noundef nonnull align 8 dereferenceable(8) %0) unnamed_addr #0 align 2 {
  %2 = alloca %"class.std::basic_string_view", align 8
  %3 = alloca ptr, align 8
  store ptr %0, ptr %3, align 8, !tbaa !4
  call void @_ZNSt17basic_string_viewIcSt11char_traitsIcEEC2EPKc(ptr noundef nonnull align 8 dereferenceable(16) %2, ptr noundef @.str) #5
  %4 = load { i64, ptr }, ptr %2, align 8
  ret { i64, ptr } %4
}

; Function Attrs: mustprogress nounwind uwtable
define linkonce_odr dso_local void @_ZNSt17basic_string_viewIcSt11char_traitsIcEEC2EPKc(ptr noundef nonnull align 8 dereferenceable(16) %0, ptr noundef nonnull %1) unnamed_addr #0 comdat align 2 personality ptr @__gxx_personality_v0 {
  %3 = alloca ptr, align 8
  %4 = alloca ptr, align 8
  store ptr %0, ptr %3, align 8, !tbaa !9
  store ptr %1, ptr %4, align 8, !tbaa !11
  %5 = load ptr, ptr %3, align 8
  %6 = getelementptr inbounds nuw %"class.std::basic_string_view", ptr %5, i32 0, i32 0
  %7 = load ptr, ptr %4, align 8, !tbaa !11
  %8 = invoke noundef i64 @_ZNSt11char_traitsIcE6lengthEPKc(ptr noundef %7)
          to label %9 unwind label %12

9:                                                ; preds = %2
  store i64 %8, ptr %6, align 8, !tbaa !13
  %10 = getelementptr inbounds nuw %"class.std::basic_string_view", ptr %5, i32 0, i32 1
  %11 = load ptr, ptr %4, align 8, !tbaa !11
  store ptr %11, ptr %10, align 8, !tbaa !16
  ret void

12:                                               ; preds = %2
  %13 = landingpad { ptr, i32 }
          catch ptr null
  %14 = extractvalue { ptr, i32 } %13, 0
  call void @__clang_call_terminate(ptr %14) #6
  unreachable
}

; Function Attrs: mustprogress nounwind uwtable
define dso_local noundef zeroext i1 @_ZNK4absl15CommandLineFlag9IsRetiredEv(ptr noundef nonnull align 8 dereferenceable(8) %0) unnamed_addr #0 align 2 {
  %2 = alloca ptr, align 8
  store ptr %0, ptr %2, align 8, !tbaa !4
  ret i1 false
}

; Function Attrs: mustprogress uwtable
define dso_local noundef zeroext i1 @_ZN4absl15CommandLineFlag9ParseFromESt17basic_string_viewIcSt11char_traitsIcEEPNSt7__cxx1112basic_stringIcS3_SaIcEEE(ptr noundef nonnull align 8 dereferenceable(8) %0, i64 %1, ptr %2, ptr noundef %3) #1 align 2 {
  %5 = alloca %"class.std::basic_string_view", align 8
  %6 = alloca ptr, align 8
  %7 = alloca ptr, align 8
  %8 = alloca %"class.std::basic_string_view", align 8
  %9 = getelementptr inbounds nuw { i64, ptr }, ptr %5, i32 0, i32 0
  store i64 %1, ptr %9, align 8
  %10 = getelementptr inbounds nuw { i64, ptr }, ptr %5, i32 0, i32 1
  store ptr %2, ptr %10, align 8
  store ptr %0, ptr %6, align 8, !tbaa !4
  store ptr %3, ptr %7, align 8, !tbaa !17
  %11 = load ptr, ptr %6, align 8
  call void @llvm.memcpy.p0.p0.i64(ptr align 8 %8, ptr align 8 %5, i64 16, i1 false), !tbaa.struct !19
  %12 = load ptr, ptr %7, align 8, !tbaa !17
  %13 = getelementptr inbounds nuw { i64, ptr }, ptr %8, i32 0, i32 0
  %14 = load i64, ptr %13, align 8
  %15 = getelementptr inbounds nuw { i64, ptr }, ptr %8, i32 0, i32 1
  %16 = load ptr, ptr %15, align 8
  %17 = load ptr, ptr %11, align 8, !tbaa !21
  %18 = getelementptr inbounds ptr, ptr %17, i64 6
  %19 = load ptr, ptr %18, align 8
  %20 = call noundef zeroext i1 %19(ptr noundef nonnull align 8 dereferenceable(8) %11, i64 %14, ptr %16, i32 noundef 0, i32 noundef 1, ptr noundef nonnull align 8 dereferenceable(32) %12)
  ret i1 %20
}

; Function Attrs: nocallback nofree nounwind willreturn memory(argmem: readwrite)
declare void @llvm.memcpy.p0.p0.i64(ptr noalias writeonly captures(none), ptr noalias readonly captures(none), i64, i1 immarg) #2

declare void @__cxa_pure_virtual() unnamed_addr

; Function Attrs: mustprogress nounwind uwtable
define linkonce_odr dso_local noundef i64 @_ZNSt11char_traitsIcE6lengthEPKc(ptr noundef %0) #0 comdat align 2 {
  %2 = alloca ptr, align 8
  store ptr %0, ptr %2, align 8, !tbaa !11
  %3 = load ptr, ptr %2, align 8, !tbaa !11
  %4 = call i64 @strlen(ptr noundef %3) #5
  ret i64 %4
}

declare i32 @__gxx_personality_v0(...)

; Function Attrs: noinline noreturn nounwind uwtable
define linkonce_odr hidden void @__clang_call_terminate(ptr noundef %0) #3 comdat {
  %2 = call ptr @__cxa_begin_catch(ptr %0) #5
  call void @_ZSt9terminatev() #6
  unreachable
}

declare ptr @__cxa_begin_catch(ptr)

declare void @_ZSt9terminatev()

; Function Attrs: nounwind
declare i64 @strlen(ptr noundef) #4


!llvm.module.flags = !{!0, !1, !2, !3}

!0 = !{i32 1, !"wchar_size", i32 4}
!1 = !{i32 8, !"PIC Level", i32 2}
!2 = !{i32 7, !"PIE Level", i32 2}
!3 = !{i32 7, !"uwtable", i32 2}
!4 = !{!5, !5, i64 0}
!5 = !{!"p1 _ZTSN4absl15CommandLineFlagE", !6, i64 0}
!6 = !{!"any pointer", !7, i64 0}
!7 = !{!"omnipotent char", !8, i64 0}
!8 = !{!"Simple C++ TBAA"}
!9 = !{!10, !10, i64 0}
!10 = !{!"p1 _ZTSSt17basic_string_viewIcSt11char_traitsIcEE", !6, i64 0}
!11 = !{!12, !12, i64 0}
!12 = !{!"p1 omnipotent char", !6, i64 0}
!13 = !{!14, !15, i64 0}
!14 = !{!"_ZTSSt17basic_string_viewIcSt11char_traitsIcEE", !15, i64 0, !12, i64 8}
!15 = !{!"long", !7, i64 0}
!16 = !{!14, !12, i64 8}
!17 = !{!18, !18, i64 0}
!18 = !{!"p1 _ZTSNSt7__cxx1112basic_stringIcSt11char_traitsIcESaIcEEE", !6, i64 0}
!19 = !{i64 0, i64 8, !20, i64 8, i64 8, !11}
!20 = !{!15, !15, i64 0}
!21 = !{!22, !22, i64 0}
!22 = !{!"vtable pointer", !8, i64 0}
