; ModuleID = 'bench/abseil-cpp/original/commandlineflag.ll'
source_filename = "bench/abseil-cpp/original/commandlineflag.ll"
target datalayout = "e-m:e-p270:32:32-p271:32:32-p272:64:64-i64:64-i128:128-f80:128-n8:16:32:64-S128"
target triple = "x86_64-pc-linux-gnu"

@.str = private unnamed_addr constant [1 x i8] zeroinitializer, align 1
@_ZTVN4absl15CommandLineFlagE = dso_local unnamed_addr constant { [16 x ptr] } { [16 x ptr] [ptr null, ptr @_ZTIN4absl15CommandLineFlagE, ptr @__cxa_pure_virtual, ptr @__cxa_pure_virtual, ptr @__cxa_pure_virtual, ptr @_ZNK4absl15CommandLineFlag9IsRetiredEv, ptr @__cxa_pure_virtual, ptr @__cxa_pure_virtual, ptr @__cxa_pure_virtual, ptr @__cxa_pure_virtual, ptr @__cxa_pure_virtual, ptr @__cxa_pure_virtual, ptr @__cxa_pure_virtual, ptr @__cxa_pure_virtual, ptr @__cxa_pure_virtual, ptr @_ZNK4absl15CommandLineFlag8TypeNameEv] }, align 8
@_ZTIN4absl15CommandLineFlagE = dso_local constant { ptr, ptr } { ptr getelementptr inbounds (ptr, ptr @_ZTVN10__cxxabiv117__class_type_infoE, i64 2), ptr @_ZTSN4absl15CommandLineFlagE }, align 8
@_ZTVN10__cxxabiv117__class_type_infoE = external global [0 x ptr]
@_ZTSN4absl15CommandLineFlagE = dso_local constant [25 x i8] c"N4absl15CommandLineFlagE\00", align 1

; Function Attrs: mustprogress nofree norecurse nosync nounwind willreturn memory(none) uwtable
define dso_local { i64, ptr } @_ZNK4absl15CommandLineFlag8TypeNameEv(ptr nonnull readnone align 8 captures(none) %0) unnamed_addr #0 align 2 personality ptr @__gxx_personality_v0 {
  ret { i64, ptr } { i64 0, ptr @.str }
}

; Function Attrs: mustprogress nofree norecurse nosync nounwind willreturn memory(none) uwtable
define dso_local noundef zeroext i1 @_ZNK4absl15CommandLineFlag9IsRetiredEv(ptr nonnull readnone align 8 captures(none) %0) unnamed_addr #0 align 2 {
  ret i1 false
}

; Function Attrs: mustprogress uwtable
define dso_local noundef zeroext i1 @_ZN4absl15CommandLineFlag9ParseFromESt17basic_string_viewIcSt11char_traitsIcEEPNSt7__cxx1112basic_stringIcS3_SaIcEEE(ptr noundef nonnull align 8 dereferenceable(8) %0, i64 %1, ptr %2, ptr noundef %3) local_unnamed_addr #1 align 2 {
  %5 = load ptr, ptr %0, align 8, !tbaa !4
  %6 = getelementptr inbounds nuw i8, ptr %5, i64 48
  %7 = load ptr, ptr %6, align 8
  %8 = tail call noundef zeroext i1 %7(ptr noundef nonnull align 8 dereferenceable(8) %0, i64 %1, ptr %2, i32 noundef 0, i32 noundef 1, ptr noundef nonnull align 8 dereferenceable(32) %3)
  ret i1 %8
}

declare void @__cxa_pure_virtual() unnamed_addr

declare i32 @__gxx_personality_v0(...)


!llvm.module.flags = !{!0, !1, !2, !3}

!0 = !{i32 1, !"wchar_size", i32 4}
!1 = !{i32 8, !"PIC Level", i32 2}
!2 = !{i32 7, !"PIE Level", i32 2}
!3 = !{i32 7, !"uwtable", i32 2}
!4 = !{!5, !5, i64 0}
!5 = !{!"vtable pointer", !6, i64 0}
!6 = !{!"Simple C++ TBAA"}
